target datalayout = "e-m:e-p270:32:32-p271:32:32-p272:64:64-i64:64-i128:128-f80:128-n8:16:32:64-S128"
target triple = "x86_64-pc-linux-gnu"

%class.TimeStamp = type { i64 }
%class.fdStream = type <{ %class.outputStream, i32, [4 x i8] }>
%class.outputStream = type { ptr, i32, i8, i32, i64, %class.TimeStamp, ptr, i64 }
%"struct.Atomic::CmpxchgImpl" = type { i8 }
%"struct.Atomic::PlatformCmpxchg" = type { i8 }

@_ZN5JVMCI22_fatal_log_init_threadE = hidden global i64 -1, align 8
@_ZN5JVMCI13_fatal_log_fdE = hidden global i32 -1, align 4
@_ZN5JVMCI19_fatal_log_filenameE = hidden global ptr null, align 8
@tty = external global ptr, align 8
@ErrorFileToStdout = external global i8, align 1
@ErrorFileToStderr = external global i8, align 1
@_ZZN5JVMCI9fatal_logEPKcmE11name_buffer = internal global [2000 x i8] zeroinitializer, align 16
@JVMCINativeLibraryErrorFile = external global ptr, align 8
@.str.20 = private unnamed_addr constant [26 x i8] c"hs_err_pid%p_libjvmci.log\00", align 1
@.str.21 = private unnamed_addr constant [59 x i8] c"Can't open JVMCI shared library error report file. Error: \00", align 1
@.str.22 = private unnamed_addr constant [62 x i8] c"JVMCI shared library error report will be written to console.\00", align 1
@_ZTV8fdStream = external unnamed_addr constant { [7 x ptr] }, align 8

; Function Attrs: mustprogress nounwind uwtable
define linkonce_odr hidden noundef i64 @_ZNK6Atomic15PlatformCmpxchgILm8EEclIlEET_PVS3_S3_S3_19atomic_memory_order(ptr noundef nonnull align 1 dereferenceable(1) %0, ptr noundef %1, i64 noundef %2, i64 noundef %3, i32 noundef %4) #1 comdat align 2 {
  %6 = alloca ptr, align 8
  %7 = alloca ptr, align 8
  %8 = alloca i64, align 8
  %9 = alloca i64, align 8
  %10 = alloca i32, align 4
  store ptr %0, ptr %6, align 8
  store ptr %1, ptr %7, align 8
  store i64 %2, ptr %8, align 8
  store i64 %3, ptr %9, align 8
  store i32 %4, ptr %10, align 4
  %11 = load i64, ptr %9, align 8
  %12 = load i64, ptr %8, align 8
  %13 = load ptr, ptr %7, align 8
  %14 = call i64 asm sideeffect "lock cmpxchgq $1,($3)", "={ax},r,{ax},r,~{cc},~{memory},~{dirflag},~{fpsr},~{flags}"(i64 %11, i64 %12, ptr %13) #9, !srcloc !16
  store i64 %14, ptr %9, align 8
  %15 = load i64, ptr %9, align 8
  ret i64 %15
}

; Function Attrs: mustprogress nounwind uwtable
define linkonce_odr hidden void @_ZN12outputStreamD2Ev(ptr noundef nonnull align 8 dereferenceable(56) %0) unnamed_addr #1 comdat align 2 {
  %2 = alloca ptr, align 8
  store ptr %0, ptr %2, align 8
  ret void
}

; Function Attrs: mustprogress nounwind uwtable
define linkonce_odr hidden noundef i64 @_ZNK6Atomic11CmpxchgImplIlllvEclEPVlll19atomic_memory_order(ptr noundef nonnull align 1 dereferenceable(1) %0, ptr noundef %1, i64 noundef %2, i64 noundef %3, i32 noundef %4) #1 comdat align 2 {
  %6 = alloca ptr, align 8
  %7 = alloca ptr, align 8
  %8 = alloca i64, align 8
  %9 = alloca i64, align 8
  %10 = alloca i32, align 4
  %11 = alloca %"struct.Atomic::PlatformCmpxchg", align 1
  store ptr %0, ptr %6, align 8
  store ptr %1, ptr %7, align 8
  store i64 %2, ptr %8, align 8
  store i64 %3, ptr %9, align 8
  store i32 %4, ptr %10, align 4
  %12 = load ptr, ptr %7, align 8
  %13 = load i64, ptr %8, align 8
  %14 = load i64, ptr %9, align 8
  %15 = load i32, ptr %10, align 4
  %16 = call noundef i64 @_ZNK6Atomic15PlatformCmpxchgILm8EEclIlEET_PVS3_S3_S3_19atomic_memory_order(ptr noundef nonnull align 1 dereferenceable(1) %11, ptr noundef %12, i64 noundef %13, i64 noundef %14, i32 noundef %15)
  ret i64 %16
}

; Function Attrs: mustprogress nounwind uwtable
define linkonce_odr hidden void @_ZN8fdStreamD2Ev(ptr noundef nonnull align 8 dereferenceable(60) %0) unnamed_addr #1 comdat align 2 {
  %2 = alloca ptr, align 8
  store ptr %0, ptr %2, align 8
  %3 = load ptr, ptr %2, align 8
  call void @_ZN12outputStreamD2Ev(ptr noundef nonnull align 8 dereferenceable(56) %3) #9
  ret void
}

; Function Attrs: mustprogress nounwind uwtable
define linkonce_odr hidden void @_ZN8fdStream5flushEv(ptr noundef nonnull align 8 dereferenceable(60) %0) unnamed_addr #1 comdat align 2 {
  %2 = alloca ptr, align 8
  store ptr %0, ptr %2, align 8
  ret void
}

; Function Attrs: mustprogress nounwind uwtable
define linkonce_odr hidden void @_ZN8fdStreamC2Ei(ptr noundef nonnull align 8 dereferenceable(60) %0, i32 noundef %1) unnamed_addr #1 comdat align 2 {
  %3 = alloca ptr, align 8
  %4 = alloca i32, align 4
  store ptr %0, ptr %3, align 8
  store i32 %1, ptr %4, align 4
  %5 = load ptr, ptr %3, align 8
  call void @_ZN12outputStreamC2Eb(ptr noundef nonnull align 8 dereferenceable(56) %5, i1 noundef zeroext false)
  store ptr getelementptr inbounds inrange(-16, 40) ({ [7 x ptr] }, ptr @_ZTV8fdStream, i32 0, i32 0, i32 2), ptr %5, align 8
  %6 = getelementptr inbounds %class.fdStream, ptr %5, i32 0, i32 1
  %7 = load i32, ptr %4, align 4
  store i32 %7, ptr %6, align 8
  ret void
}

; Function Attrs: mustprogress nounwind uwtable
define linkonce_odr hidden noundef i64 @_ZN6Atomic7cmpxchgIlllEET_PVS1_T0_T1_19atomic_memory_order(ptr noundef %0, i64 noundef %1, i64 noundef %2, i32 noundef %3) #1 comdat align 2 {
  %5 = alloca ptr, align 8
  %6 = alloca i64, align 8
  %7 = alloca i64, align 8
  %8 = alloca i32, align 4
  %9 = alloca %"struct.Atomic::CmpxchgImpl", align 1
  store ptr %0, ptr %5, align 8
  store i64 %1, ptr %6, align 8
  store i64 %2, ptr %7, align 8
  store i32 %3, ptr %8, align 4
  %10 = load ptr, ptr %5, align 8
  %11 = load i64, ptr %6, align 8
  %12 = load i64, ptr %7, align 8
  %13 = load i32, ptr %8, align 4
  %14 = call noundef i64 @_ZNK6Atomic11CmpxchgImplIlllvEclEPVlll19atomic_memory_order(ptr noundef nonnull align 1 dereferenceable(1) %9, ptr noundef %10, i64 noundef %11, i64 noundef %12, i32 noundef %13)
  ret i64 %14
}

; Function Attrs: mustprogress nounwind uwtable
define hidden void @_ZN5JVMCI9fatal_logEPKcm(ptr noundef %0, i64 noundef %1) #1 align 2 {
  %3 = alloca ptr, align 8
  %4 = alloca i64, align 8
  %5 = alloca i64, align 8
  %6 = alloca i64, align 8
  %7 = alloca i32, align 4
  %8 = alloca i32, align 4
  %9 = alloca %class.fdStream, align 8
  store ptr %0, ptr %3, align 8
  store i64 %1, ptr %4, align 8
  %10 = call noundef i64 @_ZN2os17current_thread_idEv()
  store i64 %10, ptr %5, align 8
  store i64 -1, ptr %6, align 8
  %11 = load volatile i64, ptr @_ZN5JVMCI22_fatal_log_init_threadE, align 8
  %12 = load i64, ptr %6, align 8
  %13 = icmp eq i64 %11, %12
  br i1 %13, label %14, label %46

14:                                               ; preds = %2
  %15 = load i64, ptr %6, align 8
  %16 = load i64, ptr %5, align 8
  %17 = call noundef i64 @_ZN6Atomic7cmpxchgIlllEET_PVS1_T0_T1_19atomic_memory_order(ptr noundef @_ZN5JVMCI22_fatal_log_init_threadE, i64 noundef %15, i64 noundef %16, i32 noundef 8)
  %18 = load i64, ptr %6, align 8
  %19 = icmp eq i64 %17, %18
  br i1 %19, label %20, label %46

20:                                               ; preds = %14
  %21 = load i8, ptr @ErrorFileToStdout, align 1
  %22 = trunc i8 %21 to i1
  br i1 %22, label %23, label %24

23:                                               ; preds = %20
  store i32 1, ptr %7, align 4
  br label %44

24:                                               ; preds = %20
  %25 = load i8, ptr @ErrorFileToStderr, align 1
  %26 = trunc i8 %25 to i1
  br i1 %26, label %27, label %28

27:                                               ; preds = %24
  store i32 2, ptr %7, align 4
  br label %43

28:                                               ; preds = %24
  %29 = load ptr, ptr @JVMCINativeLibraryErrorFile, align 8
  %30 = call noundef i32 @_ZN7VMError16prepare_log_fileEPKcS1_bPcm(ptr noundef %29, ptr noundef @.str.20, i1 noundef zeroext true, ptr noundef @_ZZN5JVMCI9fatal_logEPKcmE11name_buffer, i64 noundef 2000)
  store i32 %30, ptr %7, align 4
  %31 = load i32, ptr %7, align 4
  %32 = icmp ne i32 %31, -1
  br i1 %32, label %33, label %34

33:                                               ; preds = %28
  store ptr @_ZZN5JVMCI9fatal_logEPKcmE11name_buffer, ptr @_ZN5JVMCI19_fatal_log_filenameE, align 8
  br label %42

34:                                               ; preds = %28
  %35 = call ptr @__errno_location() #10
  %36 = load i32, ptr %35, align 4
  store i32 %36, ptr %8, align 4
  %37 = load ptr, ptr @tty, align 8
  call void (ptr, ptr, ...) @_ZN12outputStream5printEPKcz(ptr noundef nonnull align 8 dereferenceable(56) %37, ptr noundef @.str.21)
  %38 = load ptr, ptr @tty, align 8
  %39 = load i32, ptr %8, align 4
  %40 = call noundef ptr @_ZN2os8strerrorEi(i32 noundef %39)
  call void @_ZN12outputStream12print_raw_crEPKc(ptr noundef nonnull align 8 dereferenceable(56) %38, ptr noundef %40)
  %41 = load ptr, ptr @tty, align 8
  call void (ptr, ptr, ...) @_ZN12outputStream8print_crEPKcz(ptr noundef nonnull align 8 dereferenceable(56) %41, ptr noundef @.str.22)
  store i32 1, ptr %7, align 4
  br label %42

42:                                               ; preds = %34, %33
  br label %43

43:                                               ; preds = %42, %27
  br label %44

44:                                               ; preds = %43, %23
  %45 = load i32, ptr %7, align 4
  store volatile i32 %45, ptr @_ZN5JVMCI13_fatal_log_fdE, align 4
  br label %52

46:                                               ; preds = %14, %2
  br label %47

47:                                               ; preds = %50, %46
  %48 = load volatile i32, ptr @_ZN5JVMCI13_fatal_log_fdE, align 4
  %49 = icmp eq i32 %48, -1
  br i1 %49, label %50, label %51

50:                                               ; preds = %47
  call void @_ZN2os17naked_short_sleepEl(i64 noundef 50)
  br label %47, !llvm.loop !12

51:                                               ; preds = %47
  br label %52

52:                                               ; preds = %51, %44
  %53 = load volatile i32, ptr @_ZN5JVMCI13_fatal_log_fdE, align 4
  call void @_ZN8fdStreamC2Ei(ptr noundef nonnull align 8 dereferenceable(60) %9, i32 noundef %53)
  %54 = load ptr, ptr %3, align 8
  %55 = load i64, ptr %4, align 8
  call void @_ZN8fdStream5writeEPKcm(ptr noundef nonnull align 8 dereferenceable(60) %9, ptr noundef %54, i64 noundef %55)
  call void @_ZN8fdStream5flushEv(ptr noundef nonnull align 8 dereferenceable(60) %9)
  call void @_ZN8fdStreamD2Ev(ptr noundef nonnull align 8 dereferenceable(60) %9) #9
  ret void
}