; Function Attrs: mustprogress nounwind uwtable
define hidden void @_ZN5JVMCI9fatal_logEPKcm(ptr noundef %0, i64 noundef %1) local_unnamed_addr #0 align 2 {
  %3 = alloca %class.fdStream, align 8
  %4 = tail call noundef i64 @_ZN2os17current_thread_idEv() #13
  %5 = load volatile i64, ptr @_ZN5JVMCI22_fatal_log_init_threadE, align 8
  %6 = icmp eq i64 %5, -1
  br i1 %6, label %7, label %28

7:                                                ; preds = %2
  %8 = tail call noundef i64 asm sideeffect "lock cmpxchgq $1,($3)", "={ax},r,{ax},r,~{cc},~{memory},~{dirflag},~{fpsr},~{flags}"(i64 %4, i64 -1, ptr nonnull @_ZN5JVMCI22_fatal_log_init_threadE) #13, !srcloc !12
  %9 = icmp eq i64 %8, -1
  br i1 %9, label %10, label %28

10:                                               ; preds = %7
  %11 = load i8, ptr @ErrorFileToStdout, align 1
  %12 = trunc i8 %11 to i1
  br i1 %12, label %27, label %13

13:                                               ; preds = %10
  %14 = load i8, ptr @ErrorFileToStderr, align 1
  %15 = trunc i8 %14 to i1
  br i1 %15, label %27, label %16

16:                                               ; preds = %13
  %17 = load ptr, ptr @JVMCINativeLibraryErrorFile, align 8
  %18 = tail call noundef i32 @_ZN7VMError16prepare_log_fileEPKcS1_bPcm(ptr noundef %17, ptr noundef nonnull @.str.20, i1 noundef zeroext true, ptr noundef nonnull @_ZZN5JVMCI9fatal_logEPKcmE11name_buffer, i64 noundef 2000) #13
  %.not = icmp eq i32 %18, -1
  br i1 %.not, label %20, label %19

19:                                               ; preds = %16
  store ptr @_ZZN5JVMCI9fatal_logEPKcmE11name_buffer, ptr @_ZN5JVMCI19_fatal_log_filenameE, align 8
  br label %27

20:                                               ; preds = %16
  %21 = tail call ptr @__errno_location() #15
  %22 = load i32, ptr %21, align 4
  %23 = load ptr, ptr @tty, align 8
  tail call void (ptr, ptr, ...) @_ZN12outputStream5printEPKcz(ptr noundef nonnull align 8 dereferenceable(56) %23, ptr noundef nonnull @.str.21) #13
  %24 = load ptr, ptr @tty, align 8
  %25 = tail call noundef ptr @_ZN2os8strerrorEi(i32 noundef %22) #13
  tail call void @_ZN12outputStream12print_raw_crEPKc(ptr noundef nonnull align 8 dereferenceable(56) %24, ptr noundef %25)
  %26 = load ptr, ptr @tty, align 8
  tail call void (ptr, ptr, ...) @_ZN12outputStream8print_crEPKcz(ptr noundef nonnull align 8 dereferenceable(56) %26, ptr noundef nonnull @.str.22) #13
  br label %27

27:                                               ; preds = %13, %10, %20, %19
  %.0 = phi i32 [ %18, %19 ], [ 1, %20 ], [ 1, %10 ], [ 2, %13 ]
  store volatile i32 %.0, ptr @_ZN5JVMCI13_fatal_log_fdE, align 4
  br label %.loopexit

28:                                               ; preds = %7, %2
  %29 = load volatile i32, ptr @_ZN5JVMCI13_fatal_log_fdE, align 4
  %30 = icmp eq i32 %29, -1
  br i1 %30, label %.lr.ph, label %.loopexit

.lr.ph:                                           ; preds = %28, %.lr.ph
  tail call void @_ZN2os17naked_short_sleepEl(i64 noundef 50) #13
  %31 = load volatile i32, ptr @_ZN5JVMCI13_fatal_log_fdE, align 4
  %32 = icmp eq i32 %31, -1
  br i1 %32, label %.lr.ph, label %.loopexit, !llvm.loop !13

.loopexit:                                        ; preds = %.lr.ph, %28, %27
  %33 = load volatile i32, ptr @_ZN5JVMCI13_fatal_log_fdE, align 4
  call void @_ZN12outputStreamC2Eb(ptr noundef nonnull align 8 dereferenceable(56) %3, i1 noundef zeroext false) #13
  store ptr getelementptr inbounds inrange(-16, 40) (i8, ptr @_ZTV8fdStream, i64 16), ptr %3, align 8
  %34 = getelementptr inbounds i8, ptr %3, i64 56
  store i32 %33, ptr %34, align 8
  call void @_ZN8fdStream5writeEPKcm(ptr noundef nonnull align 8 dereferenceable(60) %3, ptr noundef %0, i64 noundef %1) #13
  ret void
}